; Function Attrs: mustprogress uwtable
define noundef zeroext i1 @_ZN4pugi13xml_attribute9set_valueEl(ptr nocapture noundef nonnull readonly align 8 dereferenceable(8) %this, i64 noundef %rhs) local_unnamed_addr #6 align 2 {
entry:
  %buf.i = alloca [64 x i8], align 16
  %0 = load ptr, ptr %this, align 8
  %tobool.not = icmp eq ptr %0, null
  br i1 %tobool.not, label %return, label %if.end

if.end:                                           ; preds = %entry
  %value = getelementptr inbounds i8, ptr %0, i64 16
  call void @llvm.lifetime.start.p0(i64 64, ptr nonnull %buf.i)
  %add.ptr.i.i = getelementptr inbounds i8, ptr %buf.i, i64 63
  %cond.i.i = tail call i64 @llvm.abs.i64(i64 %rhs, i1 false)
  br label %do.body.i.i

do.body.i.i:                                      ; preds = %do.body.i.i, %if.end
  %result.0.i.i = phi ptr [ %add.ptr.i.i, %if.end ], [ %incdec.ptr.i.i, %do.body.i.i ]
  %rest.0.i.i = phi i64 [ %cond.i.i, %if.end ], [ %div.i.i, %do.body.i.i ]
  %rem.i.i = urem i64 %rest.0.i.i, 10
  %1 = trunc i64 %rem.i.i to i8
  %conv.i.i = or disjoint i8 %1, 48
  %incdec.ptr.i.i = getelementptr inbounds i8, ptr %result.0.i.i, i64 -1
  store i8 %conv.i.i, ptr %result.0.i.i, align 1
  %div.i.i = udiv i64 %rest.0.i.i, 10
  %tobool1.not.i.i = icmp ult i64 %rest.0.i.i, 10
  br i1 %tobool1.not.i.i, label %_ZN4pugi4impl12_GLOBAL__N_117set_value_integerImPcmEEbRT0_RT1_mT_b.exit, label %do.body.i.i, !llvm.loop !6

_ZN4pugi4impl12_GLOBAL__N_117set_value_integerImPcmEEbRT0_RT1_mT_b.exit: ; preds = %do.body.i.i
  %cmp = icmp sgt i64 %rhs, -1
  %add.ptr.i = getelementptr inbounds i8, ptr %buf.i, i64 64
  store i8 45, ptr %incdec.ptr.i.i, align 1
  %idx.ext.i.i = zext i1 %cmp to i64
  %add.ptr4.i.i = getelementptr inbounds i8, ptr %incdec.ptr.i.i, i64 %idx.ext.i.i
  %sub.ptr.lhs.cast.i = ptrtoint ptr %add.ptr.i to i64
  %sub.ptr.rhs.cast.i = ptrtoint ptr %add.ptr4.i.i to i64
  %sub.ptr.sub.i = sub i64 %sub.ptr.lhs.cast.i, %sub.ptr.rhs.cast.i
  %call2.i = call fastcc noundef zeroext i1 @_ZN4pugi4impl12_GLOBAL__N_113strcpy_insituIPcmEEbRT_RT0_mPKcm(ptr noundef nonnull align 8 dereferenceable(8) %value, ptr noundef nonnull align 8 dereferenceable(8) %0, i64 noundef 16, ptr noundef nonnull %add.ptr4.i.i, i64 noundef %sub.ptr.sub.i)
  call void @llvm.lifetime.end.p0(i64 64, ptr nonnull %buf.i)
  br label %return

return:                                           ; preds = %entry, %_ZN4pugi4impl12_GLOBAL__N_117set_value_integerImPcmEEbRT0_RT1_mT_b.exit
  %retval.0 = phi i1 [ %call2.i, %_ZN4pugi4impl12_GLOBAL__N_117set_value_integerImPcmEEbRT0_RT1_mT_b.exit ], [ false, %entry ]
  ret i1 %retval.0
}